ccopy_reg
_reconstructor
p1
(cnltk.classify.scikitlearn
SklearnClassifier
p2
c__builtin__
object
p3
NtRp4
(dp5
S'_clf'
p6
g1
(csklearn.svm.classes
LinearSVC
p7
g3
NtRp8
(dp9
S'loss'
p10
S'squared_hinge'
p11
sS'C'
F1
sS'max_iter'
p12
I1000
sS'verbose'
p13
I0
sS'fit_intercept'
p14
I01
sS'random_state'
p15
NsS'classes_'
p16
cnumpy.core.multiarray
_reconstruct
p17
(cnumpy
ndarray
p18
(I0
tS'b'
tRp19
(I1
(I2
tcnumpy
dtype
p20
(S'i8'
I0
I1
tRp21
(I3
S'<'
NNNI-1
I-1
I0
tbI00
S'\x00\x00\x00\x00\x00\x00\x00\x00\x01\x00\x00\x00\x00\x00\x00\x00'
tbsS'n_iter_'
p22
cnumpy.core.multiarray
scalar
p23
(g20
(S'i4'
I0
I1
tRp24
(I3
S'<'
NNNI-1
I-1
I0
tbS'\x96\x00\x00\x00'
tRp25
sS'intercept_scaling'
p26
I1
sS'penalty'
p27
S'l2'
p28
sS'multi_class'
p29
S'ovr'
p30
sS'coef_'
p31
g17
(g18
(I0
tS'b'
tRp32
(I1
(I1
I9
tg20
(S'f8'
I0
I1
tRp33
(I3
S'<'
NNNI-1
I-1
I0
tbI00
S"\x8c\xdd|8'\xca\xd8?\xb8g\x83u\x13\xde\xee\xbf\xb96\rE\xbc3\xa8?\xd4n\xaay\xd6\xdd\xd5\xbf\xcf\x1c%!\x10w\xa0?\xdf\xe7\xb1\x8e\xe0\xa1\xc3\xbf\xcc\xca\xf5e\xa9<\xe3?7\x1e\x91\x13\xb6%\xf1?\x11\n7\xa6\xaa\x8b\xe4\xbf"
tbsS'_sklearn_version'
p34
S'0.19.1'
p35
sS'dual'
p36
I01
sS'tol'
p37
F0.0001
sS'intercept_'
p38
g17
(g18
(I0
tS'b'
tRp39
(I1
(I1
tg33
I00
S'\x89\xc8\xcd\xa0\xa9\x10\xe0\xbf'
tbsS'class_weight'
p40
NsbsS'_encoder'
p41
g1
(csklearn.preprocessing.label
LabelEncoder
p42
g3
NtRp43
(dp44
g16
g17
(g18
(I0
tS'b'
tRp45
(I1
(I2
tg20
(S'S4'
I0
I1
tRp46
(I3
S'|'
NNNI4
I1
I0
tbI00
S'fakereal'
tbsg34
g35
sbsS'_vectorizer'
p47
g1
(csklearn.feature_extraction.dict_vectorizer
DictVectorizer
p48
g3
NtRp49
(dp50
S'sort'
p51
I01
sS'feature_names_'
p52
(lp53
I0
aI1
aI2
aI3
aI4
aI5
aI6
aI7
aI8
asS'dtype'
p54
c__builtin__
float
p55
sS'vocabulary_'
p56
(dp57
I0
I0
sI1
I1
sI2
I2
sI3
I3
sI4
I4
sI5
I5
sI6
I6
sI7
I7
sI8
I8
ssS'separator'
p58
S'='
sS'sparse'
p59
I01
sg34
g35
sbsb.