ccopy_reg
_reconstructor
p1
(cnltk.classify.scikitlearn
SklearnClassifier
p2
c__builtin__
object
p3
NtRp4
(dp5
S'_clf'
p6
g1
(csklearn.linear_model.logistic
LogisticRegression
p7
g3
NtRp8
(dp9
S'warm_start'
p10
I00
sS'C'
F1
sS'n_jobs'
p11
I1
sS'verbose'
p12
I0
sS'fit_intercept'
p13
I01
sS'solver'
p14
S'liblinear'
p15
sS'classes_'
p16
cnumpy.core.multiarray
_reconstruct
p17
(cnumpy
ndarray
p18
(I0
tS'b'
tRp19
(I1
(I2
tcnumpy
dtype
p20
(S'i8'
I0
I1
tRp21
(I3
S'<'
NNNI-1
I-1
I0
tbI00
S'\x00\x00\x00\x00\x00\x00\x00\x00\x01\x00\x00\x00\x00\x00\x00\x00'
tbsS'n_iter_'
p22
g17
(g18
(I0
tS'b'
tRp23
(I1
(I1
tg20
(S'i4'
I0
I1
tRp24
(I3
S'<'
NNNI-1
I-1
I0
tbI00
S'\x05\x00\x00\x00'
tbsS'intercept_scaling'
p25
I1
sS'penalty'
p26
S'l2'
p27
sS'multi_class'
p28
S'ovr'
p29
sS'random_state'
p30
NsS'_sklearn_version'
p31
S'0.19.1'
p32
sS'dual'
p33
I00
sS'tol'
p34
F0.0001
sS'coef_'
p35
g17
(g18
(I0
tS'b'
tRp36
(I1
(I1
I9
tg20
(S'f8'
I0
I1
tRp37
(I3
S'<'
NNNI-1
I-1
I0
tbI00
S"5(\x8cq\xae\xd8\xe8?T[1\xc1O\xa3\xfc\xbf\x9d\x81\xa7'C`x?\x82\xb5\xaa\xac=7\xea\xbf\xc3\\\x8a\xddR\xf2\xb4?\x08\x97\x88\x10\x08%\xcf\xbf]\xf5,\xdc,\xaa\xf3?\xe7\x843k\xfb\xf1\x03@}\x92|\xad2N\xf8\xbf"
tbsS'intercept_'
p38
g17
(g18
(I0
tS'b'
tRp39
(I1
(I1
tg37
I00
S'\xce\xc2\xf5\x81&\xba\xf1\xbf'
tbsS'max_iter'
p40
I100
sS'class_weight'
p41
NsbsS'_encoder'
p42
g1
(csklearn.preprocessing.label
LabelEncoder
p43
g3
NtRp44
(dp45
g16
g17
(g18
(I0
tS'b'
tRp46
(I1
(I2
tg20
(S'S4'
I0
I1
tRp47
(I3
S'|'
NNNI4
I1
I0
tbI00
S'fakereal'
tbsg31
g32
sbsS'_vectorizer'
p48
g1
(csklearn.feature_extraction.dict_vectorizer
DictVectorizer
p49
g3
NtRp50
(dp51
S'sort'
p52
I01
sS'feature_names_'
p53
(lp54
I0
aI1
aI2
aI3
aI4
aI5
aI6
aI7
aI8
asS'dtype'
p55
c__builtin__
float
p56
sS'vocabulary_'
p57
(dp58
I0
I0
sI1
I1
sI2
I2
sI3
I3
sI4
I4
sI5
I5
sI6
I6
sI7
I7
sI8
I8
ssS'separator'
p59
S'='
sS'sparse'
p60
I01
sg31
g32
sbsb.