ccopy_reg
_reconstructor
p1
(cnltk.classify.scikitlearn
SklearnClassifier
p2
c__builtin__
object
p3
NtRp4
(dp5
S'_clf'
p6
g1
(csklearn.linear_model.stochastic_gradient
SGDClassifier
p7
g3
NtRp8
(dp9
S't_'
p10
F15641
sS'n_jobs'
p11
I1
sS'shuffle'
p12
I01
sS'verbose'
p13
I0
sS'classes_'
p14
cnumpy.core.multiarray
_reconstruct
p15
(cnumpy
ndarray
p16
(I0
tS'b'
tRp17
(I1
(I2
tcnumpy
dtype
p18
(S'i8'
I0
I1
tRp19
(I3
S'<'
NNNI-1
I-1
I0
tbI00
S'\x00\x00\x00\x00\x00\x00\x00\x00\x01\x00\x00\x00\x00\x00\x00\x00'
tbsS'_tol'
p20
NsS'class_weight'
p21
NsS'fit_intercept'
p22
I01
sS'n_iter_'
p23
I5
sS'penalty'
p24
S'l2'
p25
sS'random_state'
p26
NsS'_sklearn_version'
p27
S'0.19.1'
p28
sS'tol'
p29
NsS'C'
F1
sS'n_iter'
p30
NsS'epsilon'
p31
F0.10000000000000001
sS'learning_rate'
p32
S'optimal'
p33
sS'max_iter'
p34
NsS'coef_'
p35
g15
(g16
(I0
tS'b'
tRp36
(I1
(I1
I9
tg18
(S'f8'
I0
I1
tRp37
(I3
S'<'
NNNI-1
I-1
I0
tbI00
S'\xb77\xf9\x13\xdfp\xfd?\xe0\xb9\xae\t\xd1\x00\n\xc0\xf7\x7f\xbd\x15\xb5o\xea\xbf\xfe\xda\x06\x8bs\xbd\xd4?2\x82x\xf8\xd5s\xff?\xdbz\xa7\xb3\xcb\t\xb0\xbf\x04"\xe8\xb5~\xe1\x02@\xfb\x8f\x9e\xcd(s\x0e@\x85%\x9e\'\x0f\xd9\xfc\xbf'
tbsS'alpha'
p38
F0.0001
sS'intercept_'
p39
g15
(g16
(I0
tS'b'
tRp40
(I1
(I1
tg37
I00
S'\xc4\x87\xb76Q\xa1\xef\xbf'
tbsS'_max_iter'
p41
I5
sS'_expanded_class_weight'
p42
g15
(g16
(I0
tS'b'
tRp43
(I1
(I2
tg37
I00
S'\x00\x00\x00\x00\x00\x00\xf0?\x00\x00\x00\x00\x00\x00\xf0?'
tbsS'warm_start'
p44
I00
sS'loss'
p45
S'hinge'
p46
sS'eta0'
p47
F0
sS'l1_ratio'
p48
F0.14999999999999999
sS'average'
p49
I00
sS'power_t'
p50
F0.5
sS'loss_function_'
p51
csklearn.linear_model.sgd_fast
Hinge
p52
(F1
tRp53
sbsS'_encoder'
p54
g1
(csklearn.preprocessing.label
LabelEncoder
p55
g3
NtRp56
(dp57
g14
g15
(g16
(I0
tS'b'
tRp58
(I1
(I2
tg18
(S'S4'
I0
I1
tRp59
(I3
S'|'
NNNI4
I1
I0
tbI00
S'fakereal'
tbsg27
g28
sbsS'_vectorizer'
p60
g1
(csklearn.feature_extraction.dict_vectorizer
DictVectorizer
p61
g3
NtRp62
(dp63
S'sort'
p64
I01
sS'feature_names_'
p65
(lp66
I0
aI1
aI2
aI3
aI4
aI5
aI6
aI7
aI8
asS'dtype'
p67
c__builtin__
float
p68
sS'vocabulary_'
p69
(dp70
I0
I0
sI1
I1
sI2
I2
sI3
I3
sI4
I4
sI5
I5
sI6
I6
sI7
I7
sI8
I8
ssS'separator'
p71
S'='
sS'sparse'
p72
I01
sg27
g28
sbsb.